target datalayout = "e-m:e-p270:32:32-p271:32:32-p272:64:64-i64:64-i128:128-f80:128-n8:16:32:64-S128"
target triple = "x86_64-unknown-linux-gnu"

; Function Attrs: uwtable
define noundef i32 @_ZTv0_n40_N3zmq14plain_server_t25process_handshake_commandEPNS_5msg_tE(ptr noundef %this, ptr noundef %msg_) unnamed_addr #6 align 2 {
entry:
  %this.addr = alloca ptr, align 8
  %msg_.addr = alloca ptr, align 8
  store ptr %this, ptr %this.addr, align 8
  store ptr %msg_, ptr %msg_.addr, align 8
  %this1 = load ptr, ptr %this.addr, align 8
  %0 = load ptr, ptr %this1, align 8
  %1 = getelementptr inbounds i8, ptr %0, i64 -40
  %2 = load i64, ptr %1, align 8
  %3 = getelementptr inbounds i8, ptr %this1, i64 %2
  %4 = load ptr, ptr %msg_.addr, align 8
  %call = tail call noundef i32 @_ZN3zmq14plain_server_t25process_handshake_commandEPNS_5msg_tE(ptr noundef nonnull align 8 dereferenceable(1576) %3, ptr noundef %4)
  ret i32 %call
}