; Function Attrs: uwtable
define noundef i32 @_ZTv0_n40_N3zmq14plain_server_t25process_handshake_commandEPNS_5msg_tE(ptr noundef %this, ptr noundef %msg_) unnamed_addr #7 align 2 {
entry:
  %0 = load ptr, ptr %this, align 8
  %1 = getelementptr inbounds i8, ptr %0, i64 -40
  %2 = load i64, ptr %1, align 8
  %3 = getelementptr inbounds i8, ptr %this, i64 %2
  %call = tail call noundef i32 @_ZN3zmq14plain_server_t25process_handshake_commandEPNS_5msg_tE(ptr noundef nonnull align 8 dereferenceable(1576) %3, ptr noundef %msg_)
  ret i32 %call
}